; Function Attrs: mustprogress uwtable
define void @_ZN7mitsuba10PropertiesaSERKS0_(ptr nocapture noundef nonnull readonly align 8 dereferenceable(8) %0, ptr nocapture noundef nonnull readonly align 8 dereferenceable(8) %1) local_unnamed_addr #0 align 2 {
  %3 = load ptr, ptr %1, align 8
  %4 = load ptr, ptr %0, align 8
  %.not.i.i.i = icmp eq ptr %4, %3
  br i1 %.not.i.i.i, label %_ZN7mitsuba10Properties17PropertiesPrivateaSERKS1_.exit, label %5

5:                                                ; preds = %2
  %6 = load ptr, ptr %3, align 8
  %7 = getelementptr inbounds i8, ptr %3, i64 8
  tail call void @_ZNSt3__16__treeINS_12__value_typeINS_12basic_stringIcNS_11char_traitsIcEENS_9allocatorIcEEEEN7mitsuba5EntryEEENS_19__map_value_compareIS7_SA_NS8_7SortKeyELb1EEENS5_ISA_EEE14__assign_multiINS_21__tree_const_iteratorISA_PNS_11__tree_nodeISA_PvEElEEEEvT_SN_(ptr noundef nonnull align 8 dereferenceable(24) %4, ptr %6, ptr nonnull %7)
  br label %_ZN7mitsuba10Properties17PropertiesPrivateaSERKS1_.exit

_ZN7mitsuba10Properties17PropertiesPrivateaSERKS1_.exit: ; preds = %2, %5
  %8 = getelementptr inbounds i8, ptr %4, i64 24
  %9 = getelementptr inbounds i8, ptr %3, i64 24
  %10 = tail call noundef nonnull align 8 dereferenceable(24) ptr @_ZNSt3__112basic_stringIcNS_11char_traitsIcEENS_9allocatorIcEEEaSERKS5_(ptr noundef nonnull align 8 dereferenceable(24) %8, ptr noundef nonnull align 8 dereferenceable(24) %9)
  %11 = getelementptr inbounds i8, ptr %4, i64 48
  %12 = getelementptr inbounds i8, ptr %3, i64 48
  %13 = tail call noundef nonnull align 8 dereferenceable(24) ptr @_ZNSt3__112basic_stringIcNS_11char_traitsIcEENS_9allocatorIcEEEaSERKS5_(ptr noundef nonnull align 8 dereferenceable(24) %11, ptr noundef nonnull align 8 dereferenceable(24) %12)
  ret void
}